; Function Attrs: null_pointer_is_valid sspstrong uwtable
define internal range(i32 0, -2147483648) i32 @decode_dataitem_peertype(ptr noundef %0, ptr noundef readonly captures(none) %1, ptr noundef %2, ptr readnone captures(none) %3) #0 {
  %5 = tail call ptr @proto_tree_get_parent(ptr noundef %2)
  %6 = tail call i32 @tvb_captured_length(ptr noundef %0)
  %7 = load i32, ptr @hf_dlep_dataitem_peertype, align 4
  %8 = tail call ptr @proto_tree_add_item(ptr noundef %2, i32 noundef %7, ptr noundef %0, i32 noundef 0, i32 noundef %6, i32 noundef 0)
  %.not.i = icmp eq ptr %8, null
  br i1 %.not.i, label %proto_item_set_hidden.exit, label %9

9:                                                ; preds = %4
  %10 = getelementptr inbounds nuw i8, ptr %8, i64 40
  %11 = load ptr, ptr %10, align 8
  %.not5.i = icmp eq ptr %11, null
  br i1 %.not5.i, label %proto_item_set_hidden.exit, label %12

12:                                               ; preds = %9
  %13 = getelementptr inbounds nuw i8, ptr %11, i64 28
  %14 = load i32, ptr %13, align 4
  %15 = or i32 %14, 1
  store i32 %15, ptr %13, align 4
  br label %proto_item_set_hidden.exit

proto_item_set_hidden.exit:                       ; preds = %4, %9, %12
  %16 = icmp slt i32 %6, 1
  br i1 %16, label %30, label %17

17:                                               ; preds = %proto_item_set_hidden.exit
  %18 = load i32, ptr @hf_dlep_dataitem_peertype_flags, align 4
  %19 = tail call ptr @proto_tree_add_item(ptr noundef %2, i32 noundef %18, ptr noundef %0, i32 noundef 0, i32 noundef 1, i32 noundef 0)
  %20 = load i32, ptr @ett_dlep_flags, align 4
  %21 = tail call ptr @proto_item_add_subtree(ptr noundef %19, i32 noundef %20)
  %22 = load i32, ptr @hf_dlep_dataitem_peertype_flags_smi, align 4
  %23 = tail call ptr @proto_tree_add_item(ptr noundef %21, i32 noundef %22, ptr noundef %0, i32 noundef 0, i32 noundef 1, i32 noundef 0)
  %24 = load i32, ptr @hf_dlep_dataitem_peertype_description, align 4
  %25 = add nsw i32 %6, -1
  %26 = tail call ptr @proto_tree_add_item(ptr noundef %2, i32 noundef %24, ptr noundef %0, i32 noundef 1, i32 noundef %25, i32 noundef 2)
  %27 = getelementptr inbounds nuw i8, ptr %1, i64 408
  %28 = load ptr, ptr %27, align 8
  %29 = tail call ptr @tvb_get_string_enc(ptr noundef %28, ptr noundef %0, i32 noundef 1, i32 noundef %25, i32 noundef 2)
  tail call void (ptr, ptr, ...) @proto_item_append_text(ptr noundef %5, ptr noundef nonnull @.str.209, ptr noundef %29)
  br label %30

30:                                               ; preds = %proto_item_set_hidden.exit, %17
  %.0 = phi i32 [ %6, %17 ], [ 0, %proto_item_set_hidden.exit ]
  ret i32 %.0
}